target datalayout = "e-m:e-p270:32:32-p271:32:32-p272:64:64-i64:64-i128:128-f80:128-n8:16:32:64-S128"
target triple = "x86_64-pc-linux-gnu"

; Function Attrs: nounwind uwtable
define internal i32 @HasAlpha8b_C(ptr noundef %0, i32 noundef %1) #0 {
  %3 = alloca i32, align 4
  %4 = alloca ptr, align 8
  %5 = alloca i32, align 4
  store ptr %0, ptr %4, align 8, !tbaa !13
  store i32 %1, ptr %5, align 4, !tbaa !8
  br label %6

6:                                                ; preds = %17, %2
  %7 = load i32, ptr %5, align 4, !tbaa !8
  %8 = add nsw i32 %7, -1
  store i32 %8, ptr %5, align 4, !tbaa !8
  %9 = icmp sgt i32 %7, 0
  br i1 %9, label %10, label %18

10:                                               ; preds = %6
  %11 = load ptr, ptr %4, align 8, !tbaa !13
  %12 = getelementptr inbounds nuw i8, ptr %11, i32 1
  store ptr %12, ptr %4, align 8, !tbaa !13
  %13 = load i8, ptr %11, align 1, !tbaa !12
  %14 = zext i8 %13 to i32
  %15 = icmp ne i32 %14, 255
  br i1 %15, label %16, label %17

16:                                               ; preds = %10
  store i32 1, ptr %3, align 4
  br label %19

17:                                               ; preds = %10
  br label %6, !llvm.loop !29

18:                                               ; preds = %6
  store i32 0, ptr %3, align 4
  br label %19

19:                                               ; preds = %18, %16
  %20 = load i32, ptr %3, align 4
  ret i32 %20
}