; Function Attrs: nofree norecurse nosync nounwind memory(argmem: read) uwtable
define internal range(i32 0, 2) i32 @HasAlpha8b_C(ptr noundef readonly captures(none) %0, i32 noundef %1) #3 {
  br label %3

3:                                                ; preds = %5, %2
  %.02 = phi ptr [ %0, %2 ], [ %7, %5 ]
  %.0 = phi i32 [ %1, %2 ], [ %6, %5 ]
  %4 = icmp sgt i32 %.0, 0
  br i1 %4, label %5, label %9

5:                                                ; preds = %3
  %6 = add nsw i32 %.0, -1
  %7 = getelementptr inbounds nuw i8, ptr %.02, i64 1
  %8 = load i8, ptr %.02, align 1, !tbaa !9
  %.not = icmp eq i8 %8, -1
  br i1 %.not, label %3, label %9, !llvm.loop !27

9:                                                ; preds = %3, %5
  %.03 = phi i32 [ 1, %5 ], [ 0, %3 ]
  ret i32 %.03
}